; Function Attrs: mustprogress uwtable
define void @_ZNK6Assimp16ExportProperties19GetPropertyCallbackEPKc(ptr dead_on_unwind noalias writable sret(%"class.std::function") align 8 %0, ptr noundef nonnull align 8 dereferenceable(240) %1, ptr noundef %2) local_unnamed_addr #1 align 2 personality ptr @__gxx_personality_v0 {
  %4 = alloca %"class.std::function", align 8
  %5 = getelementptr inbounds nuw i8, ptr %1, i64 192
  call void @llvm.lifetime.start.p0(i64 32, ptr nonnull %4) #31
  call void @llvm.memset.p0.i64(ptr noundef nonnull align 8 dereferenceable(32) %4, i8 0, i64 32, i1 false)
  %6 = invoke noundef nonnull align 8 dereferenceable(32) ptr @_Z18GetGenericPropertyISt8functionIFPvS1_EEERKT_RKSt3mapIjS4_St4lessIjESaISt4pairIKjS4_EEEPKcS6_(ptr noundef nonnull align 8 dereferenceable(48) %5, ptr noundef %2, ptr noundef nonnull align 8 dereferenceable(32) %4)
          to label %7 unwind label %33

7:                                                ; preds = %3
  %8 = getelementptr inbounds nuw i8, ptr %0, i64 16
  %9 = getelementptr inbounds nuw i8, ptr %0, i64 24
  %10 = getelementptr inbounds nuw i8, ptr %6, i64 16
  call void @llvm.memset.p0.i64(ptr noundef nonnull align 8 dereferenceable(32) %0, i8 0, i64 32, i1 false)
  %11 = load ptr, ptr %10, align 8
  %.not.i.i.not.i = icmp eq ptr %11, null
  br i1 %.not.i.i.not.i, label %_ZNSt8functionIFPvS0_EEC2ERKS2_.exit, label %12

12:                                               ; preds = %7
  %13 = invoke noundef zeroext i1 %11(ptr noundef nonnull align 8 dereferenceable(32) %0, ptr noundef nonnull align 8 dereferenceable(32) %6, i32 noundef 2)
          to label %14 unwind label %18

14:                                               ; preds = %12
  %15 = getelementptr inbounds nuw i8, ptr %6, i64 24
  %16 = load ptr, ptr %15, align 8
  store ptr %16, ptr %9, align 8
  %17 = load ptr, ptr %10, align 8
  store ptr %17, ptr %8, align 8
  br label %_ZNSt8functionIFPvS0_EEC2ERKS2_.exit

18:                                               ; preds = %12
  %19 = landingpad { ptr, i32 }
          cleanup
  %20 = load ptr, ptr %8, align 8
  %.not.i.i = icmp eq ptr %20, null
  br i1 %.not.i.i, label %.body, label %21

21:                                               ; preds = %18
  %22 = invoke noundef zeroext i1 %20(ptr noundef nonnull align 8 dereferenceable(32) %0, ptr noundef nonnull align 8 dereferenceable(32) %0, i32 noundef 3)
          to label %.body unwind label %23

23:                                               ; preds = %21
  %24 = landingpad { ptr, i32 }
          catch ptr null
  %25 = extractvalue { ptr, i32 } %24, 0
  call void @__clang_call_terminate(ptr %25) #30
  unreachable

_ZNSt8functionIFPvS0_EEC2ERKS2_.exit:             ; preds = %14, %7
  %26 = getelementptr inbounds nuw i8, ptr %4, i64 16
  %27 = load ptr, ptr %26, align 8
  %.not.i = icmp eq ptr %27, null
  br i1 %.not.i, label %_ZNSt14_Function_baseD2Ev.exit, label %28

28:                                               ; preds = %_ZNSt8functionIFPvS0_EEC2ERKS2_.exit
  %29 = invoke noundef zeroext i1 %27(ptr noundef nonnull align 8 dereferenceable(32) %4, ptr noundef nonnull align 8 dereferenceable(32) %4, i32 noundef 3)
          to label %_ZNSt14_Function_baseD2Ev.exit unwind label %30

30:                                               ; preds = %28
  %31 = landingpad { ptr, i32 }
          catch ptr null
  %32 = extractvalue { ptr, i32 } %31, 0
  call void @__clang_call_terminate(ptr %32) #30
  unreachable

_ZNSt14_Function_baseD2Ev.exit:                   ; preds = %_ZNSt8functionIFPvS0_EEC2ERKS2_.exit, %28
  call void @llvm.lifetime.end.p0(i64 32, ptr nonnull %4) #31
  ret void

33:                                               ; preds = %3
  %34 = landingpad { ptr, i32 }
          cleanup
  br label %.body

.body:                                            ; preds = %18, %21, %33
  %eh.lpad-body = phi { ptr, i32 } [ %34, %33 ], [ %19, %21 ], [ %19, %18 ]
  %35 = getelementptr inbounds nuw i8, ptr %4, i64 16
  %36 = load ptr, ptr %35, align 8
  %.not.i3 = icmp eq ptr %36, null
  br i1 %.not.i3, label %_ZNSt14_Function_baseD2Ev.exit4, label %37

37:                                               ; preds = %.body
  %38 = invoke noundef zeroext i1 %36(ptr noundef nonnull align 8 dereferenceable(32) %4, ptr noundef nonnull align 8 dereferenceable(32) %4, i32 noundef 3)
          to label %_ZNSt14_Function_baseD2Ev.exit4 unwind label %39

39:                                               ; preds = %37
  %40 = landingpad { ptr, i32 }
          catch ptr null
  %41 = extractvalue { ptr, i32 } %40, 0
  call void @__clang_call_terminate(ptr %41) #30
  unreachable

_ZNSt14_Function_baseD2Ev.exit4:                  ; preds = %.body, %37
  call void @llvm.lifetime.end.p0(i64 32, ptr nonnull %4) #31
  resume { ptr, i32 } %eh.lpad-body
}